target datalayout = "e-m:e-p270:32:32-p271:32:32-p272:64:64-i64:64-i128:128-f80:128-n8:16:32:64-S128"
target triple = "x86_64-pc-linux-gnu"

%struct.FilterParams = type { i32, double, ptr, ptr, ptr }

; Function Attrs: nounwind uwtable
define internal void @blend_darken_9bit(ptr noundef %0, i64 noundef %1, ptr noundef %2, i64 noundef %3, ptr noundef %4, i64 noundef %5, i64 noundef %6, i64 noundef %7, ptr noundef %8, ptr noundef %9) #0 {
  %11 = alloca ptr, align 8
  %12 = alloca i64, align 8
  %13 = alloca ptr, align 8
  %14 = alloca i64, align 8
  %15 = alloca ptr, align 8
  %16 = alloca i64, align 8
  %17 = alloca i64, align 8
  %18 = alloca i64, align 8
  %19 = alloca ptr, align 8
  %20 = alloca ptr, align 8
  %21 = alloca ptr, align 8
  %22 = alloca ptr, align 8
  %23 = alloca ptr, align 8
  %24 = alloca float, align 4
  %25 = alloca i32, align 4
  %26 = alloca i32, align 4
  %27 = alloca i32, align 4
  store ptr %0, ptr %11, align 8, !tbaa !46
  store i64 %1, ptr %12, align 8, !tbaa !88
  store ptr %2, ptr %13, align 8, !tbaa !46
  store i64 %3, ptr %14, align 8, !tbaa !88
  store ptr %4, ptr %15, align 8, !tbaa !46
  store i64 %5, ptr %16, align 8, !tbaa !88
  store i64 %6, ptr %17, align 8, !tbaa !88
  store i64 %7, ptr %18, align 8, !tbaa !88
  store ptr %8, ptr %19, align 8, !tbaa !77
  store ptr %9, ptr %20, align 8, !tbaa !89
  call void @llvm.lifetime.start.p0(i64 8, ptr %21) #12
  %28 = load ptr, ptr %11, align 8, !tbaa !46
  store ptr %28, ptr %21, align 8, !tbaa !103
  call void @llvm.lifetime.start.p0(i64 8, ptr %22) #12
  %29 = load ptr, ptr %13, align 8, !tbaa !46
  store ptr %29, ptr %22, align 8, !tbaa !103
  call void @llvm.lifetime.start.p0(i64 8, ptr %23) #12
  %30 = load ptr, ptr %15, align 8, !tbaa !46
  store ptr %30, ptr %23, align 8, !tbaa !103
  call void @llvm.lifetime.start.p0(i64 4, ptr %24) #12
  %31 = load ptr, ptr %19, align 8, !tbaa !77
  %32 = getelementptr inbounds nuw %struct.FilterParams, ptr %31, i32 0, i32 1
  %33 = load double, ptr %32, align 8, !tbaa !82
  %34 = fptrunc nsz double %33 to float
  store float %34, ptr %24, align 4, !tbaa !99
  %35 = load i64, ptr %16, align 8, !tbaa !88
  %36 = udiv i64 %35, 2
  store i64 %36, ptr %16, align 8, !tbaa !88
  %37 = load i64, ptr %12, align 8, !tbaa !88
  %38 = udiv i64 %37, 2
  store i64 %38, ptr %12, align 8, !tbaa !88
  %39 = load i64, ptr %14, align 8, !tbaa !88
  %40 = udiv i64 %39, 2
  store i64 %40, ptr %14, align 8, !tbaa !88
  call void @llvm.lifetime.start.p0(i64 4, ptr %25) #12
  store i32 0, ptr %25, align 4, !tbaa !37
  br label %41

41:                                               ; preds = %119, %10
  %42 = load i32, ptr %25, align 4, !tbaa !37
  %43 = sext i32 %42 to i64
  %44 = load i64, ptr %18, align 8, !tbaa !88
  %45 = icmp slt i64 %43, %44
  br i1 %45, label %47, label %46

46:                                               ; preds = %41
  store i32 2, ptr %26, align 4
  call void @llvm.lifetime.end.p0(i64 4, ptr %25) #12
  br label %122

47:                                               ; preds = %41
  call void @llvm.lifetime.start.p0(i64 4, ptr %27) #12
  store i32 0, ptr %27, align 4, !tbaa !37
  br label %48

48:                                               ; preds = %106, %47
  %49 = load i32, ptr %27, align 4, !tbaa !37
  %50 = sext i32 %49 to i64
  %51 = load i64, ptr %17, align 8, !tbaa !88
  %52 = icmp slt i64 %50, %51
  br i1 %52, label %54, label %53

53:                                               ; preds = %48
  store i32 5, ptr %26, align 4
  call void @llvm.lifetime.end.p0(i64 4, ptr %27) #12
  br label %109

54:                                               ; preds = %48
  %55 = load ptr, ptr %21, align 8, !tbaa !103
  %56 = load i32, ptr %27, align 4, !tbaa !37
  %57 = sext i32 %56 to i64
  %58 = getelementptr inbounds i16, ptr %55, i64 %57
  %59 = load i16, ptr %58, align 2, !tbaa !105
  %60 = zext i16 %59 to i32
  %61 = sitofp i32 %60 to float
  %62 = load ptr, ptr %21, align 8, !tbaa !103
  %63 = load i32, ptr %27, align 4, !tbaa !37
  %64 = sext i32 %63 to i64
  %65 = getelementptr inbounds i16, ptr %62, i64 %64
  %66 = load i16, ptr %65, align 2, !tbaa !105
  %67 = zext i16 %66 to i32
  %68 = load ptr, ptr %22, align 8, !tbaa !103
  %69 = load i32, ptr %27, align 4, !tbaa !37
  %70 = sext i32 %69 to i64
  %71 = getelementptr inbounds i16, ptr %68, i64 %70
  %72 = load i16, ptr %71, align 2, !tbaa !105
  %73 = zext i16 %72 to i32
  %74 = icmp sgt i32 %67, %73
  br i1 %74, label %75, label %82

75:                                               ; preds = %54
  %76 = load ptr, ptr %22, align 8, !tbaa !103
  %77 = load i32, ptr %27, align 4, !tbaa !37
  %78 = sext i32 %77 to i64
  %79 = getelementptr inbounds i16, ptr %76, i64 %78
  %80 = load i16, ptr %79, align 2, !tbaa !105
  %81 = zext i16 %80 to i32
  br label %89

82:                                               ; preds = %54
  %83 = load ptr, ptr %21, align 8, !tbaa !103
  %84 = load i32, ptr %27, align 4, !tbaa !37
  %85 = sext i32 %84 to i64
  %86 = getelementptr inbounds i16, ptr %83, i64 %85
  %87 = load i16, ptr %86, align 2, !tbaa !105
  %88 = zext i16 %87 to i32
  br label %89

89:                                               ; preds = %82, %75
  %90 = phi i32 [ %81, %75 ], [ %88, %82 ]
  %91 = load ptr, ptr %21, align 8, !tbaa !103
  %92 = load i32, ptr %27, align 4, !tbaa !37
  %93 = sext i32 %92 to i64
  %94 = getelementptr inbounds i16, ptr %91, i64 %93
  %95 = load i16, ptr %94, align 2, !tbaa !105
  %96 = zext i16 %95 to i32
  %97 = sub nsw i32 %90, %96
  %98 = sitofp i32 %97 to float
  %99 = load float, ptr %24, align 4, !tbaa !99
  %100 = call nsz float @llvm.fmuladd.f32(float %98, float %99, float %61)
  %101 = fptoui float %100 to i16
  %102 = load ptr, ptr %23, align 8, !tbaa !103
  %103 = load i32, ptr %27, align 4, !tbaa !37
  %104 = sext i32 %103 to i64
  %105 = getelementptr inbounds i16, ptr %102, i64 %104
  store i16 %101, ptr %105, align 2, !tbaa !105
  br label %106

106:                                              ; preds = %89
  %107 = load i32, ptr %27, align 4, !tbaa !37
  %108 = add nsw i32 %107, 1
  store i32 %108, ptr %27, align 4, !tbaa !37
  br label %48, !llvm.loop !202

109:                                              ; preds = %53
  %110 = load i64, ptr %16, align 8, !tbaa !88
  %111 = load ptr, ptr %23, align 8, !tbaa !103
  %112 = getelementptr inbounds i16, ptr %111, i64 %110
  store ptr %112, ptr %23, align 8, !tbaa !103
  %113 = load i64, ptr %12, align 8, !tbaa !88
  %114 = load ptr, ptr %21, align 8, !tbaa !103
  %115 = getelementptr inbounds i16, ptr %114, i64 %113
  store ptr %115, ptr %21, align 8, !tbaa !103
  %116 = load i64, ptr %14, align 8, !tbaa !88
  %117 = load ptr, ptr %22, align 8, !tbaa !103
  %118 = getelementptr inbounds i16, ptr %117, i64 %116
  store ptr %118, ptr %22, align 8, !tbaa !103
  br label %119

119:                                              ; preds = %109
  %120 = load i32, ptr %25, align 4, !tbaa !37
  %121 = add nsw i32 %120, 1
  store i32 %121, ptr %25, align 4, !tbaa !37
  br label %41, !llvm.loop !203

122:                                              ; preds = %46
  call void @llvm.lifetime.end.p0(i64 4, ptr %24) #12
  call void @llvm.lifetime.end.p0(i64 8, ptr %23) #12
  call void @llvm.lifetime.end.p0(i64 8, ptr %22) #12
  call void @llvm.lifetime.end.p0(i64 8, ptr %21) #12
  ret void
}